; Function Attrs: mustprogress nofree nounwind willreturn memory(argmem: readwrite) uwtable
define dso_local void @_ZN5LexerC2EPKc(ptr noundef nonnull writeonly align 8 captures(none) dereferenceable(48) initializes((0, 48)) %0, ptr noundef %1) unnamed_addr #3 align 2 {
  %3 = getelementptr inbounds nuw i8, ptr %0, i64 16
  tail call void @llvm.memset.p0.i64(ptr noundef nonnull align 8 dereferenceable(32) %0, i8 0, i64 32, i1 false)
  %4 = tail call i64 @strlen(ptr noundef nonnull dereferenceable(1) %1) #19
  store ptr @.str.4, ptr %0, align 8, !tbaa !31
  %.sroa.22.0..sroa_idx.i = getelementptr inbounds nuw i8, ptr %0, i64 8
  store i64 5, ptr %.sroa.22.0..sroa_idx.i, align 8, !tbaa !20
  store ptr %1, ptr %3, align 8, !tbaa !31
  %.sroa.2.0..sroa_idx.i = getelementptr inbounds nuw i8, ptr %0, i64 24
  store i64 %4, ptr %.sroa.2.0..sroa_idx.i, align 8, !tbaa !20
  %5 = getelementptr inbounds nuw i8, ptr %0, i64 32
  store ptr %1, ptr %5, align 8, !tbaa !32
  %6 = getelementptr inbounds nuw i8, ptr %0, i64 40
  store ptr null, ptr %6, align 8, !tbaa !12
  ret void
}